; Function Attrs: mustprogress uwtable
define void @_ZN6icu_7713DecimalFormat21setScientificNotationEa(ptr noundef nonnull align 8 dereferenceable(72) %0, i8 noundef signext %1) unnamed_addr #1 align 2 {
  %3 = alloca i32, align 4
  %4 = getelementptr inbounds nuw i8, ptr %0, i64 64
  %5 = load ptr, ptr %4, align 8, !tbaa !25
  %6 = icmp eq ptr %5, null
  br i1 %6, label %13, label %7

7:                                                ; preds = %2
  %.not = icmp eq i8 %1, 0
  %8 = select i1 %.not, i32 -1, i32 1
  %9 = getelementptr inbounds nuw i8, ptr %5, i64 108
  %10 = load i32, ptr %9, align 4, !tbaa !182
  %11 = icmp eq i32 %10, %8
  br i1 %11, label %13, label %12

12:                                               ; preds = %7
  store i32 %8, ptr %9, align 4, !tbaa !182
  call void @llvm.lifetime.start.p0(i64 4, ptr nonnull %3) #19
  store i32 0, ptr %3, align 4, !tbaa !13
  call void @_ZN6icu_7713DecimalFormat5touchER10UErrorCode(ptr noundef nonnull align 8 dereferenceable(72) %0, ptr noundef nonnull align 4 dereferenceable(4) %3)
  call void @llvm.lifetime.end.p0(i64 4, ptr nonnull %3) #19
  br label %13

13:                                               ; preds = %12, %7, %2
  ret void
}